target datalayout = "e-m:e-p270:32:32-p271:32:32-p272:64:64-i64:64-i128:128-f80:128-n8:16:32:64-S128"
target triple = "x86_64-pc-linux-gnu"

%struct.expert_field = type { i32, i32 }

@hf_nan_availability_intervals_bitmap = internal global i32 0, align 4
@hf_nan_mac_address = internal global i32 0, align 4
@hf_nan_map_ctrl_field = internal global i32 0, align 4
@hf_nan_attr_mesh_id = internal global i32 0, align 4
@ett_map_control = internal global i32 0, align 4
@ei_nan_elem_len_invalid = internal global %struct.expert_field zeroinitializer, align 4
@map_control_fields = internal constant [4 x ptr] [ptr @hf_nan_map_ctrl_map_id, ptr @hf_nan_map_ctrl_availability_interval_duration, ptr @hf_nan_map_ctrl_repeat, ptr null], align 16

; Function Attrs: null_pointer_is_valid sspstrong uwtable
define internal void @dissect_attr_mesh(ptr noundef %0, ptr noundef %1, i32 noundef %2, i16 noundef zeroext %3, ptr noundef %4) #0 {
  %6 = alloca ptr, align 8
  %7 = alloca ptr, align 8
  %8 = alloca i32, align 4
  %9 = alloca i16, align 2
  %10 = alloca ptr, align 8
  %11 = alloca i32, align 4
  %12 = alloca i8, align 1
  %13 = alloca i32, align 4
  store ptr %0, ptr %6, align 8
  store ptr %1, ptr %7, align 8
  store i32 %2, ptr %8, align 4
  store i16 %3, ptr %9, align 2
  store ptr %4, ptr %10, align 8
  %14 = load i16, ptr %9, align 2
  %15 = zext i16 %14 to i32
  %16 = icmp slt i32 %15, 8
  br i1 %16, label %17, label %21

17:                                               ; preds = %5
  %18 = load ptr, ptr %10, align 8
  %19 = load ptr, ptr %6, align 8
  %20 = call ptr @expert_add_info(ptr noundef %18, ptr noundef %19, ptr noundef @ei_nan_elem_len_invalid)
  br label %65

21:                                               ; preds = %5
  call void @llvm.lifetime.start.p0(i64 4, ptr %11) #5
  %22 = load i32, ptr %8, align 4
  %23 = add i32 %22, 3
  store i32 %23, ptr %11, align 4
  %24 = load ptr, ptr %6, align 8
  %25 = load i32, ptr @hf_nan_mac_address, align 4
  %26 = load ptr, ptr %7, align 8
  %27 = load i32, ptr %11, align 4
  %28 = call ptr @proto_tree_add_item(ptr noundef %24, i32 noundef %25, ptr noundef %26, i32 noundef %27, i32 noundef 6, i32 noundef 0)
  %29 = load i32, ptr %11, align 4
  %30 = add i32 %29, 6
  store i32 %30, ptr %11, align 4
  call void @llvm.lifetime.start.p0(i64 1, ptr %12) #5
  %31 = load ptr, ptr %7, align 8
  %32 = load i32, ptr %11, align 4
  %33 = mul i32 %32, 8
  %34 = add i32 %33, 5
  %35 = call zeroext i8 @tvb_get_bits8(ptr noundef %31, i32 noundef %34, i32 noundef 2)
  store i8 %35, ptr %12, align 1
  call void @llvm.lifetime.start.p0(i64 4, ptr %13) #5
  %36 = load i8, ptr %12, align 1
  %37 = zext i8 %36 to i32
  switch i32 %37, label %41 [
    i32 0, label %38
    i32 1, label %39
    i32 2, label %40
  ]

38:                                               ; preds = %21
  store i32 4, ptr %13, align 4
  br label %42

39:                                               ; preds = %21
  store i32 2, ptr %13, align 4
  br label %42

40:                                               ; preds = %21
  store i32 1, ptr %13, align 4
  br label %42

41:                                               ; preds = %21
  store i32 0, ptr %13, align 4
  br label %42

42:                                               ; preds = %41, %40, %39, %38
  %43 = load ptr, ptr %6, align 8
  %44 = load ptr, ptr %7, align 8
  %45 = load i32, ptr %11, align 4
  %46 = load i32, ptr @hf_nan_map_ctrl_field, align 4
  %47 = load i32, ptr @ett_map_control, align 4
  %48 = call ptr @proto_tree_add_bitmask(ptr noundef %43, ptr noundef %44, i32 noundef %45, i32 noundef %46, i32 noundef %47, ptr noundef @map_control_fields, i32 noundef -2147483648)
  %49 = load i32, ptr %11, align 4
  %50 = add i32 %49, 1
  store i32 %50, ptr %11, align 4
  %51 = load ptr, ptr %6, align 8
  %52 = load i32, ptr @hf_nan_availability_intervals_bitmap, align 4
  %53 = load ptr, ptr %7, align 8
  %54 = load i32, ptr %11, align 4
  %55 = load i32, ptr %13, align 4
  %56 = call ptr @proto_tree_add_item(ptr noundef %51, i32 noundef %52, ptr noundef %53, i32 noundef %54, i32 noundef %55, i32 noundef 0)
  %57 = load i32, ptr %13, align 4
  %58 = load i32, ptr %11, align 4
  %59 = add i32 %58, %57
  store i32 %59, ptr %11, align 4
  %60 = load ptr, ptr %6, align 8
  %61 = load i32, ptr @hf_nan_attr_mesh_id, align 4
  %62 = load ptr, ptr %7, align 8
  %63 = load i32, ptr %11, align 4
  %64 = call ptr @proto_tree_add_item(ptr noundef %60, i32 noundef %61, ptr noundef %62, i32 noundef %63, i32 noundef -1, i32 noundef 0)
  call void @llvm.lifetime.end.p0(i64 4, ptr %13) #5
  call void @llvm.lifetime.end.p0(i64 1, ptr %12) #5
  call void @llvm.lifetime.end.p0(i64 4, ptr %11) #5
  br label %65

65:                                               ; preds = %42, %17
  ret void
}