; Function Attrs: null_pointer_is_valid sspstrong uwtable
define internal fastcc void @dissect_attr_mesh(ptr noundef %0, ptr noundef %1, i32 noundef %2, i16 noundef zeroext %3, ptr noundef %4) unnamed_addr #0 {
  %6 = icmp ult i16 %3, 8
  br i1 %6, label %7, label %9

7:                                                ; preds = %5
  %8 = tail call ptr @expert_add_info(ptr noundef %4, ptr noundef %0, ptr noundef nonnull @ei_nan_elem_len_invalid)
  br label %29

9:                                                ; preds = %5
  %10 = add i32 %2, 3
  %11 = load i32, ptr @hf_nan_mac_address, align 4
  %12 = tail call ptr @proto_tree_add_item(ptr noundef %0, i32 noundef %11, ptr noundef %1, i32 noundef %10, i32 noundef 6, i32 noundef 0)
  %13 = add i32 %2, 9
  %14 = shl i32 %13, 3
  %15 = or disjoint i32 %14, 5
  %16 = tail call zeroext i8 @tvb_get_bits8(ptr noundef %1, i32 noundef %15, i32 noundef 2)
  %17 = icmp ult i8 %16, 3
  br i1 %17, label %switch.lookup, label %19

switch.lookup:                                    ; preds = %9
  %18 = zext nneg i8 %16 to i64
  %switch.gep = getelementptr inbounds nuw [3 x i32], ptr @switch.table.dissect_attr_mesh, i64 0, i64 %18
  %switch.load = load i32, ptr %switch.gep, align 4
  br label %19

19:                                               ; preds = %9, %switch.lookup
  %.0 = phi i32 [ %switch.load, %switch.lookup ], [ 0, %9 ]
  %20 = load i32, ptr @hf_nan_map_ctrl_field, align 4
  %21 = load i32, ptr @ett_map_control, align 4
  %22 = tail call ptr @proto_tree_add_bitmask(ptr noundef %0, ptr noundef %1, i32 noundef %13, i32 noundef %20, i32 noundef %21, ptr noundef nonnull @map_control_fields, i32 noundef -2147483648)
  %23 = add i32 %2, 10
  %24 = load i32, ptr @hf_nan_availability_intervals_bitmap, align 4
  %25 = tail call ptr @proto_tree_add_item(ptr noundef %0, i32 noundef %24, ptr noundef %1, i32 noundef %23, i32 noundef %.0, i32 noundef 0)
  %26 = add i32 %.0, %23
  %27 = load i32, ptr @hf_nan_attr_mesh_id, align 4
  %28 = tail call ptr @proto_tree_add_item(ptr noundef %0, i32 noundef %27, ptr noundef %1, i32 noundef %26, i32 noundef -1, i32 noundef 0)
  br label %29

29:                                               ; preds = %19, %7
  ret void
}